; Function Attrs: nounwind uwtable
define ptr @l_Lean_Environment_getNamespaceSet(ptr noundef %0) local_unnamed_addr #0 {
  %2 = load ptr, ptr @l_Lean_namespacesExt, align 8, !tbaa !4
  %3 = getelementptr inbounds nuw i8, ptr %2, i64 8
  %4 = load ptr, ptr %3, align 8, !tbaa !4
  %5 = ptrtoint ptr %4 to i64
  %6 = and i64 %5, 1
  %.not = icmp eq i64 %6, 0
  br i1 %.not, label %7, label %lean_inc.exit

7:                                                ; preds = %1
  %.val.i = load i32, ptr %4, align 4, !tbaa !8
  %8 = icmp sgt i32 %.val.i, 0
  br i1 %8, label %9, label %11, !prof !11

9:                                                ; preds = %7
  %10 = add nuw i32 %.val.i, 1
  store i32 %10, ptr %4, align 4, !tbaa !8
  br label %17

11:                                               ; preds = %7
  %.not.i8 = icmp eq i32 %.val.i, 0
  br i1 %.not.i8, label %.thread9, label %14

.thread9:                                         ; preds = %11
  %12 = getelementptr inbounds nuw i8, ptr %4, i64 32
  %13 = load i8, ptr %12, align 1, !tbaa !15
  br label %lean_dec.exit

14:                                               ; preds = %11
  tail call void @lean_inc_ref_cold(ptr noundef nonnull %4) #3
  %.pr = load i32, ptr %4, align 4, !tbaa !8
  br label %17

lean_inc.exit:                                    ; preds = %1
  %15 = getelementptr inbounds nuw i8, ptr %4, i64 32
  %16 = load i8, ptr %15, align 1, !tbaa !15
  br label %lean_dec.exit

17:                                               ; preds = %14, %9
  %18 = phi i32 [ %.pr, %14 ], [ %10, %9 ]
  %19 = getelementptr inbounds nuw i8, ptr %4, i64 32
  %20 = load i8, ptr %19, align 1, !tbaa !15
  %21 = icmp sgt i32 %18, 1
  br i1 %21, label %22, label %24, !prof !16

22:                                               ; preds = %17
  %23 = add nsw i32 %18, -1
  store i32 %23, ptr %4, align 4, !tbaa !8
  br label %lean_dec.exit

24:                                               ; preds = %17
  %.not.i = icmp eq i32 %18, 0
  br i1 %.not.i, label %lean_dec.exit, label %25

25:                                               ; preds = %24
  tail call void @lean_dec_ref_cold(ptr noundef nonnull %4) #3
  br label %lean_dec.exit

lean_dec.exit:                                    ; preds = %25, %24, %22, %.thread9, %lean_inc.exit
  %26 = phi i8 [ %16, %lean_inc.exit ], [ %20, %22 ], [ %20, %24 ], [ %20, %25 ], [ %13, %.thread9 ]
  %27 = load ptr, ptr @l_Lean_NameSSet_instInhabited, align 8, !tbaa !4
  %28 = load ptr, ptr @l_Lean_Environment_registerNamespace___closed__1, align 8, !tbaa !4
  %29 = tail call ptr @l_Lean_SimplePersistentEnvExtension_getState___rarg(ptr noundef %27, ptr noundef %28, ptr noundef %0, i8 noundef zeroext %26) #3
  ret ptr %29
}